target datalayout = "e-m:e-p270:32:32-p271:32:32-p272:64:64-i64:64-i128:128-f80:128-n8:16:32:64-S128"
target triple = "x86_64-pc-linux-gnu"

%"class.arrow::Status" = type { ptr }

@.str.2 = private unnamed_addr constant [29 x i8] c"Invalid sparse tensor format\00", align 1

; Function Attrs: mustprogress uwtable
define linkonce_odr void @_ZN5arrow6Status7InvalidIJRA29_KcEEES0_DpOT_(ptr dead_on_unwind noalias writable sret(%"class.arrow::Status") align 8 %0, ptr noundef nonnull align 1 dereferenceable(29) %1) #0 comdat align 2 {
  %3 = alloca ptr, align 8
  %4 = alloca ptr, align 8
  store ptr %0, ptr %3, align 8
  store ptr %1, ptr %4, align 8, !tbaa !13
  %5 = load ptr, ptr %4, align 8, !tbaa !13
  call void @_ZN5arrow6Status8FromArgsIJRA29_KcEEES0_NS_10StatusCodeEDpOT_(ptr dead_on_unwind writable sret(%"class.arrow::Status") align 8 %0, i8 noundef signext 4, ptr noundef nonnull align 1 dereferenceable(29) %5)
  ret void
}

; Function Attrs: mustprogress uwtable
define void @_ZN5arrow8internal26MakeSparseTensorFromTensorERKNS_6TensorENS_18SparseTensorFormat4typeERKSt10shared_ptrINS_8DataTypeEEPNS_10MemoryPoolEPS6_INS_11SparseIndexEEPS6_INS_6BufferEE(ptr dead_on_unwind noalias writable sret(%"class.arrow::Status") align 8 %0, ptr noundef nonnull align 8 dereferenceable(112) %1, i32 noundef %2, ptr noundef nonnull align 8 dereferenceable(16) %3, ptr noundef %4, ptr noundef %5, ptr noundef %6) #0 {
  %8 = alloca ptr, align 8
  %9 = alloca ptr, align 8
  %10 = alloca i32, align 4
  %11 = alloca ptr, align 8
  %12 = alloca ptr, align 8
  %13 = alloca ptr, align 8
  %14 = alloca ptr, align 8
  store ptr %0, ptr %8, align 8
  store ptr %1, ptr %9, align 8, !tbaa !40
  store i32 %2, ptr %10, align 4, !tbaa !42
  store ptr %3, ptr %11, align 8, !tbaa !15
  store ptr %4, ptr %12, align 8, !tbaa !44
  store ptr %5, ptr %13, align 8, !tbaa !46
  store ptr %6, ptr %14, align 8, !tbaa !48
  %15 = load i32, ptr %10, align 4, !tbaa !42
  switch i32 %15, label %40 [
    i32 0, label %16
    i32 1, label %22
    i32 2, label %28
    i32 3, label %34
  ]

16:                                               ; preds = %7
  %17 = load ptr, ptr %9, align 8, !tbaa !40
  %18 = load ptr, ptr %11, align 8, !tbaa !15
  %19 = load ptr, ptr %12, align 8, !tbaa !44
  %20 = load ptr, ptr %13, align 8, !tbaa !46
  %21 = load ptr, ptr %14, align 8, !tbaa !48
  call void @_ZN5arrow8internal29MakeSparseCOOTensorFromTensorERKNS_6TensorERKSt10shared_ptrINS_8DataTypeEEPNS_10MemoryPoolEPS4_INS_11SparseIndexEEPS4_INS_6BufferEE(ptr dead_on_unwind writable sret(%"class.arrow::Status") align 8 %0, ptr noundef nonnull align 8 dereferenceable(112) %17, ptr noundef nonnull align 8 dereferenceable(16) %18, ptr noundef %19, ptr noundef %20, ptr noundef %21)
  br label %41

22:                                               ; preds = %7
  %23 = load ptr, ptr %9, align 8, !tbaa !40
  %24 = load ptr, ptr %11, align 8, !tbaa !15
  %25 = load ptr, ptr %12, align 8, !tbaa !44
  %26 = load ptr, ptr %13, align 8, !tbaa !46
  %27 = load ptr, ptr %14, align 8, !tbaa !48
  call void @_ZN5arrow8internal29MakeSparseCSXMatrixFromTensorENS0_26SparseMatrixCompressedAxisERKNS_6TensorERKSt10shared_ptrINS_8DataTypeEEPNS_10MemoryPoolEPS5_INS_11SparseIndexEEPS5_INS_6BufferEE(ptr dead_on_unwind writable sret(%"class.arrow::Status") align 8 %0, i8 noundef signext 0, ptr noundef nonnull align 8 dereferenceable(112) %23, ptr noundef nonnull align 8 dereferenceable(16) %24, ptr noundef %25, ptr noundef %26, ptr noundef %27)
  br label %41

28:                                               ; preds = %7
  %29 = load ptr, ptr %9, align 8, !tbaa !40
  %30 = load ptr, ptr %11, align 8, !tbaa !15
  %31 = load ptr, ptr %12, align 8, !tbaa !44
  %32 = load ptr, ptr %13, align 8, !tbaa !46
  %33 = load ptr, ptr %14, align 8, !tbaa !48
  call void @_ZN5arrow8internal29MakeSparseCSXMatrixFromTensorENS0_26SparseMatrixCompressedAxisERKNS_6TensorERKSt10shared_ptrINS_8DataTypeEEPNS_10MemoryPoolEPS5_INS_11SparseIndexEEPS5_INS_6BufferEE(ptr dead_on_unwind writable sret(%"class.arrow::Status") align 8 %0, i8 noundef signext 1, ptr noundef nonnull align 8 dereferenceable(112) %29, ptr noundef nonnull align 8 dereferenceable(16) %30, ptr noundef %31, ptr noundef %32, ptr noundef %33)
  br label %41

34:                                               ; preds = %7
  %35 = load ptr, ptr %9, align 8, !tbaa !40
  %36 = load ptr, ptr %11, align 8, !tbaa !15
  %37 = load ptr, ptr %12, align 8, !tbaa !44
  %38 = load ptr, ptr %13, align 8, !tbaa !46
  %39 = load ptr, ptr %14, align 8, !tbaa !48
  call void @_ZN5arrow8internal29MakeSparseCSFTensorFromTensorERKNS_6TensorERKSt10shared_ptrINS_8DataTypeEEPNS_10MemoryPoolEPS4_INS_11SparseIndexEEPS4_INS_6BufferEE(ptr dead_on_unwind writable sret(%"class.arrow::Status") align 8 %0, ptr noundef nonnull align 8 dereferenceable(112) %35, ptr noundef nonnull align 8 dereferenceable(16) %36, ptr noundef %37, ptr noundef %38, ptr noundef %39)
  br label %41

40:                                               ; preds = %7
  call void @_ZN5arrow6Status7InvalidIJRA29_KcEEES0_DpOT_(ptr dead_on_unwind writable sret(%"class.arrow::Status") align 8 %0, ptr noundef nonnull align 1 dereferenceable(29) @.str.2)
  br label %41

41:                                               ; preds = %40, %34, %28, %22, %16
  ret void
}