; Function Attrs: mustprogress uwtable
define void @_ZN5arrow8internal26MakeSparseTensorFromTensorERKNS_6TensorENS_18SparseTensorFormat4typeERKSt10shared_ptrINS_8DataTypeEEPNS_10MemoryPoolEPS6_INS_11SparseIndexEEPS6_INS_6BufferEE(ptr dead_on_unwind noalias writable sret(%"class.arrow::Status") align 8 %0, ptr noundef nonnull align 8 dereferenceable(112) %1, i32 noundef %2, ptr noundef nonnull align 8 dereferenceable(16) %3, ptr noundef %4, ptr noundef %5, ptr noundef %6) local_unnamed_addr #0 {
  switch i32 %2, label %12 [
    i32 0, label %8
    i32 1, label %9
    i32 2, label %10
    i32 3, label %11
  ]

8:                                                ; preds = %7
  tail call void @_ZN5arrow8internal29MakeSparseCOOTensorFromTensorERKNS_6TensorERKSt10shared_ptrINS_8DataTypeEEPNS_10MemoryPoolEPS4_INS_11SparseIndexEEPS4_INS_6BufferEE(ptr dead_on_unwind writable sret(%"class.arrow::Status") align 8 %0, ptr noundef nonnull align 8 dereferenceable(112) %1, ptr noundef nonnull align 8 dereferenceable(16) %3, ptr noundef %4, ptr noundef %5, ptr noundef %6)
  br label %13

9:                                                ; preds = %7
  tail call void @_ZN5arrow8internal29MakeSparseCSXMatrixFromTensorENS0_26SparseMatrixCompressedAxisERKNS_6TensorERKSt10shared_ptrINS_8DataTypeEEPNS_10MemoryPoolEPS5_INS_11SparseIndexEEPS5_INS_6BufferEE(ptr dead_on_unwind writable sret(%"class.arrow::Status") align 8 %0, i8 noundef signext 0, ptr noundef nonnull align 8 dereferenceable(112) %1, ptr noundef nonnull align 8 dereferenceable(16) %3, ptr noundef %4, ptr noundef %5, ptr noundef %6)
  br label %13

10:                                               ; preds = %7
  tail call void @_ZN5arrow8internal29MakeSparseCSXMatrixFromTensorENS0_26SparseMatrixCompressedAxisERKNS_6TensorERKSt10shared_ptrINS_8DataTypeEEPNS_10MemoryPoolEPS5_INS_11SparseIndexEEPS5_INS_6BufferEE(ptr dead_on_unwind writable sret(%"class.arrow::Status") align 8 %0, i8 noundef signext 1, ptr noundef nonnull align 8 dereferenceable(112) %1, ptr noundef nonnull align 8 dereferenceable(16) %3, ptr noundef %4, ptr noundef %5, ptr noundef %6)
  br label %13

11:                                               ; preds = %7
  tail call void @_ZN5arrow8internal29MakeSparseCSFTensorFromTensorERKNS_6TensorERKSt10shared_ptrINS_8DataTypeEEPNS_10MemoryPoolEPS4_INS_11SparseIndexEEPS4_INS_6BufferEE(ptr dead_on_unwind writable sret(%"class.arrow::Status") align 8 %0, ptr noundef nonnull align 8 dereferenceable(112) %1, ptr noundef nonnull align 8 dereferenceable(16) %3, ptr noundef %4, ptr noundef %5, ptr noundef %6)
  br label %13

12:                                               ; preds = %7
  tail call void @_ZN5arrow6Status8FromArgsIJRA29_KcEEES0_NS_10StatusCodeEDpOT_(ptr dead_on_unwind writable sret(%"class.arrow::Status") align 8 %0, i8 noundef signext 4, ptr noundef nonnull align 1 dereferenceable(29) @.str.2)
  br label %13

13:                                               ; preds = %12, %11, %10, %9, %8
  ret void
}